target datalayout = "e-m:e-p270:32:32-p271:32:32-p272:64:64-i64:64-i128:128-f80:128-n8:16:32:64-S128"
target triple = "x86_64-pc-linux-gnu"

%struct.avifScalingMode = type { %struct.avifFraction, %struct.avifFraction }
%struct.avifFraction = type { i32, i32 }
%struct.avifRWData = type { ptr, i64 }
%struct.avifEncoder = type { i32, i32, i32, i32, i64, i32, i32, i32, i32, i32, i32, i32, i32, i32, i32, i32, %struct.avifScalingMode, %struct.avifIOStats, %struct.avifDiagnostics, ptr, ptr, i32 }
%struct.avifIOStats = type { i64, i64 }
%struct.avifDiagnostics = type { [256 x i8] }
%struct.avifEncoderData = type { %struct.avifEncoderItemArray, %struct.avifEncoderFrameArray, i32, i32, i32, i32, %struct.avifEncoder, i32, i32, i32, i32, ptr, i16, i16, %struct.avifEncoderItemIdArray, i32, i32, i64, ptr, ptr }
%struct.avifEncoderItemArray = type { ptr, i32, i32, i32 }
%struct.avifEncoderFrameArray = type { ptr, i32, i32, i32 }
%struct.avifEncoderItemIdArray = type { ptr, i32, i32, i32 }
%struct.avifEncoderItem = type { i16, [4 x i8], ptr, ptr, %struct.avifRWData, %struct.avifCodecConfigurationBox, i32, i32, i32, ptr, i64, ptr, i64, %struct.avifOffsetFixupArray, i16, ptr, i32, i32, i32, i32, i32, i16, %struct.ipmaArray }
%struct.avifCodecConfigurationBox = type { i8, i8, i8, i8, i8, i8, i8, i8, i8 }
%struct.avifOffsetFixupArray = type { ptr, i32, i32, i32 }
%struct.ipmaArray = type { [16 x i8], [16 x i32], i8 }
%struct.avifCodec = type { ptr, ptr, ptr, i8, i32, ptr, ptr, ptr, ptr }
%struct.avifRWStream = type { ptr, i64, i64 }

@infeNameAlpha = internal constant [6 x i8] c"Alpha\00", align 1
@infeNameColor = internal constant [6 x i8] c"Color\00", align 1
@.str.59 = private unnamed_addr constant [5 x i8] c"grid\00", align 1

; Function Attrs: nounwind uwtable
define internal i32 @avifWriteGridPayload(ptr noundef %0, i32 noundef %1, i32 noundef %2, i32 noundef %3, i32 noundef %4) #0 {
  %6 = alloca i32, align 4
  %7 = alloca ptr, align 8
  %8 = alloca i32, align 4
  %9 = alloca i32, align 4
  %10 = alloca i32, align 4
  %11 = alloca i32, align 4
  %12 = alloca i8, align 1
  %13 = alloca %struct.avifRWStream, align 8
  %14 = alloca i32, align 4
  %15 = alloca i32, align 4
  %16 = alloca i32, align 4
  %17 = alloca i32, align 4
  %18 = alloca i32, align 4
  %19 = alloca i32, align 4
  %20 = alloca i16, align 2
  %21 = alloca i16, align 2
  %22 = alloca i32, align 4
  %23 = alloca i32, align 4
  store ptr %0, ptr %7, align 8
  store i32 %1, ptr %8, align 4
  store i32 %2, ptr %9, align 4
  store i32 %3, ptr %10, align 4
  store i32 %4, ptr %11, align 4
  %24 = load i32, ptr %10, align 4
  %25 = icmp ugt i32 %24, 65535
  br i1 %25, label %29, label %26

26:                                               ; preds = %5
  %27 = load i32, ptr %11, align 4
  %28 = icmp ugt i32 %27, 65535
  br label %29

29:                                               ; preds = %26, %5
  %30 = phi i1 [ true, %5 ], [ %28, %26 ]
  %31 = select i1 %30, i32 1, i32 0
  %32 = trunc i32 %31 to i8
  store i8 %32, ptr %12, align 1
  %33 = load ptr, ptr %7, align 8
  call void @avifRWStreamStart(ptr noundef %13, ptr noundef %33)
  br label %34

34:                                               ; preds = %29
  %35 = call i32 @avifRWStreamWriteU8(ptr noundef %13, i8 noundef zeroext 0)
  store i32 %35, ptr %14, align 4
  %36 = load i32, ptr %14, align 4
  %37 = icmp ne i32 %36, 0
  br i1 %37, label %38, label %40

38:                                               ; preds = %34
  %39 = load i32, ptr %14, align 4
  store i32 %39, ptr %6, align 4
  br label %120

40:                                               ; preds = %34
  br label %41

41:                                               ; preds = %40
  br label %42

42:                                               ; preds = %41
  %43 = load i8, ptr %12, align 1
  %44 = call i32 @avifRWStreamWriteU8(ptr noundef %13, i8 noundef zeroext %43)
  store i32 %44, ptr %15, align 4
  %45 = load i32, ptr %15, align 4
  %46 = icmp ne i32 %45, 0
  br i1 %46, label %47, label %49

47:                                               ; preds = %42
  %48 = load i32, ptr %15, align 4
  store i32 %48, ptr %6, align 4
  br label %120

49:                                               ; preds = %42
  br label %50

50:                                               ; preds = %49
  br label %51

51:                                               ; preds = %50
  %52 = load i32, ptr %9, align 4
  %53 = sub i32 %52, 1
  %54 = trunc i32 %53 to i8
  %55 = call i32 @avifRWStreamWriteU8(ptr noundef %13, i8 noundef zeroext %54)
  store i32 %55, ptr %16, align 4
  %56 = load i32, ptr %16, align 4
  %57 = icmp ne i32 %56, 0
  br i1 %57, label %58, label %60

58:                                               ; preds = %51
  %59 = load i32, ptr %16, align 4
  store i32 %59, ptr %6, align 4
  br label %120

60:                                               ; preds = %51
  br label %61

61:                                               ; preds = %60
  br label %62

62:                                               ; preds = %61
  %63 = load i32, ptr %8, align 4
  %64 = sub i32 %63, 1
  %65 = trunc i32 %64 to i8
  %66 = call i32 @avifRWStreamWriteU8(ptr noundef %13, i8 noundef zeroext %65)
  store i32 %66, ptr %17, align 4
  %67 = load i32, ptr %17, align 4
  %68 = icmp ne i32 %67, 0
  br i1 %68, label %69, label %71

69:                                               ; preds = %62
  %70 = load i32, ptr %17, align 4
  store i32 %70, ptr %6, align 4
  br label %120

71:                                               ; preds = %62
  br label %72

72:                                               ; preds = %71
  %73 = load i8, ptr %12, align 1
  %74 = zext i8 %73 to i32
  %75 = and i32 %74, 1
  %76 = icmp ne i32 %75, 0
  br i1 %76, label %77, label %96

77:                                               ; preds = %72
  br label %78

78:                                               ; preds = %77
  %79 = load i32, ptr %10, align 4
  %80 = call i32 @avifRWStreamWriteU32(ptr noundef %13, i32 noundef %79)
  store i32 %80, ptr %18, align 4
  %81 = load i32, ptr %18, align 4
  %82 = icmp ne i32 %81, 0
  br i1 %82, label %83, label %85

83:                                               ; preds = %78
  %84 = load i32, ptr %18, align 4
  store i32 %84, ptr %6, align 4
  br label %120

85:                                               ; preds = %78
  br label %86

86:                                               ; preds = %85
  br label %87

87:                                               ; preds = %86
  %88 = load i32, ptr %11, align 4
  %89 = call i32 @avifRWStreamWriteU32(ptr noundef %13, i32 noundef %88)
  store i32 %89, ptr %19, align 4
  %90 = load i32, ptr %19, align 4
  %91 = icmp ne i32 %90, 0
  br i1 %91, label %92, label %94

92:                                               ; preds = %87
  %93 = load i32, ptr %19, align 4
  store i32 %93, ptr %6, align 4
  br label %120

94:                                               ; preds = %87
  br label %95

95:                                               ; preds = %94
  br label %119

96:                                               ; preds = %72
  %97 = load i32, ptr %10, align 4
  %98 = trunc i32 %97 to i16
  store i16 %98, ptr %20, align 2
  %99 = load i32, ptr %11, align 4
  %100 = trunc i32 %99 to i16
  store i16 %100, ptr %21, align 2
  br label %101

101:                                              ; preds = %96
  %102 = load i16, ptr %20, align 2
  %103 = call i32 @avifRWStreamWriteU16(ptr noundef %13, i16 noundef zeroext %102)
  store i32 %103, ptr %22, align 4
  %104 = load i32, ptr %22, align 4
  %105 = icmp ne i32 %104, 0
  br i1 %105, label %106, label %108

106:                                              ; preds = %101
  %107 = load i32, ptr %22, align 4
  store i32 %107, ptr %6, align 4
  br label %120

108:                                              ; preds = %101
  br label %109

109:                                              ; preds = %108
  br label %110

110:                                              ; preds = %109
  %111 = load i16, ptr %21, align 2
  %112 = call i32 @avifRWStreamWriteU16(ptr noundef %13, i16 noundef zeroext %111)
  store i32 %112, ptr %23, align 4
  %113 = load i32, ptr %23, align 4
  %114 = icmp ne i32 %113, 0
  br i1 %114, label %115, label %117

115:                                              ; preds = %110
  %116 = load i32, ptr %23, align 4
  store i32 %116, ptr %6, align 4
  br label %120

117:                                              ; preds = %110
  br label %118

118:                                              ; preds = %117
  br label %119

119:                                              ; preds = %118, %95
  call void @avifRWStreamFinishWrite(ptr noundef %13)
  store i32 0, ptr %6, align 4
  br label %120

120:                                              ; preds = %119, %115, %106, %92, %83, %69, %58, %47, %38
  %121 = load i32, ptr %6, align 4
  ret i32 %121
}

; Function Attrs: nounwind uwtable
define internal i32 @avifEncoderAddImageItems(ptr noundef %0, i32 noundef %1, i32 noundef %2, i32 noundef %3, i32 noundef %4, i32 noundef %5, ptr noundef %6) #0 {
  %8 = alloca i32, align 4
  %9 = alloca ptr, align 8
  %10 = alloca i32, align 4
  %11 = alloca i32, align 4
  %12 = alloca i32, align 4
  %13 = alloca i32, align 4
  %14 = alloca i32, align 4
  %15 = alloca ptr, align 8
  %16 = alloca i32, align 4
  %17 = alloca ptr, align 8
  %18 = alloca i64, align 8
  %19 = alloca ptr, align 8
  %20 = alloca i32, align 4
  %21 = alloca i32, align 4
  %22 = alloca ptr, align 8
  %23 = alloca i32, align 4
  store ptr %0, ptr %9, align 8
  store i32 %1, ptr %10, align 4
  store i32 %2, ptr %11, align 4
  store i32 %3, ptr %12, align 4
  store i32 %4, ptr %13, align 4
  store i32 %5, ptr %14, align 4
  store ptr %6, ptr %15, align 8
  %24 = load i32, ptr %10, align 4
  %25 = load i32, ptr %11, align 4
  %26 = mul i32 %24, %25
  store i32 %26, ptr %16, align 4
  %27 = load i32, ptr %14, align 4
  %28 = icmp eq i32 %27, 1
  %29 = select i1 %28, ptr @infeNameAlpha, ptr @infeNameColor
  store ptr %29, ptr %17, align 8
  %30 = load ptr, ptr %17, align 8
  %31 = call i64 @strlen(ptr noundef %30) #7
  %32 = add i64 %31, 1
  store i64 %32, ptr %18, align 8
  %33 = load i32, ptr %16, align 4
  %34 = icmp ugt i32 %33, 1
  br i1 %34, label %35, label %75

35:                                               ; preds = %7
  %36 = load ptr, ptr %9, align 8
  %37 = getelementptr inbounds nuw %struct.avifEncoder, ptr %36, i32 0, i32 19
  %38 = load ptr, ptr %37, align 8
  %39 = load ptr, ptr %17, align 8
  %40 = load i64, ptr %18, align 8
  %41 = call ptr @avifEncoderDataCreateItem(ptr noundef %38, ptr noundef @.str.59, ptr noundef %39, i64 noundef %40, i32 noundef 0)
  store ptr %41, ptr %19, align 8
  br label %42

42:                                               ; preds = %35
  %43 = load ptr, ptr %19, align 8
  %44 = getelementptr inbounds nuw %struct.avifEncoderItem, ptr %43, i32 0, i32 4
  %45 = load i32, ptr %10, align 4
  %46 = load i32, ptr %11, align 4
  %47 = load i32, ptr %12, align 4
  %48 = load i32, ptr %13, align 4
  %49 = call i32 @avifWriteGridPayload(ptr noundef %44, i32 noundef %45, i32 noundef %46, i32 noundef %47, i32 noundef %48)
  store i32 %49, ptr %20, align 4
  %50 = load i32, ptr %20, align 4
  %51 = icmp ne i32 %50, 0
  br i1 %51, label %52, label %54

52:                                               ; preds = %42
  %53 = load i32, ptr %20, align 4
  store i32 %53, ptr %8, align 4
  br label %152

54:                                               ; preds = %42
  br label %55

55:                                               ; preds = %54
  %56 = load i32, ptr %14, align 4
  %57 = load ptr, ptr %19, align 8
  %58 = getelementptr inbounds nuw %struct.avifEncoderItem, ptr %57, i32 0, i32 7
  store i32 %56, ptr %58, align 8
  %59 = load i32, ptr %10, align 4
  %60 = load ptr, ptr %19, align 8
  %61 = getelementptr inbounds nuw %struct.avifEncoderItem, ptr %60, i32 0, i32 16
  store i32 %59, ptr %61, align 8
  %62 = load i32, ptr %11, align 4
  %63 = load ptr, ptr %19, align 8
  %64 = getelementptr inbounds nuw %struct.avifEncoderItem, ptr %63, i32 0, i32 17
  store i32 %62, ptr %64, align 4
  %65 = load i32, ptr %12, align 4
  %66 = load ptr, ptr %19, align 8
  %67 = getelementptr inbounds nuw %struct.avifEncoderItem, ptr %66, i32 0, i32 18
  store i32 %65, ptr %67, align 8
  %68 = load i32, ptr %13, align 4
  %69 = load ptr, ptr %19, align 8
  %70 = getelementptr inbounds nuw %struct.avifEncoderItem, ptr %69, i32 0, i32 19
  store i32 %68, ptr %70, align 4
  %71 = load ptr, ptr %19, align 8
  %72 = getelementptr inbounds nuw %struct.avifEncoderItem, ptr %71, i32 0, i32 0
  %73 = load i16, ptr %72, align 8
  %74 = load ptr, ptr %15, align 8
  store i16 %73, ptr %74, align 2
  br label %75

75:                                               ; preds = %55, %7
  store i32 0, ptr %21, align 4
  br label %76

76:                                               ; preds = %148, %75
  %77 = load i32, ptr %21, align 4
  %78 = load i32, ptr %16, align 4
  %79 = icmp ult i32 %77, %78
  br i1 %79, label %80, label %151

80:                                               ; preds = %76
  %81 = load ptr, ptr %9, align 8
  %82 = getelementptr inbounds nuw %struct.avifEncoder, ptr %81, i32 0, i32 19
  %83 = load ptr, ptr %82, align 8
  %84 = load ptr, ptr %9, align 8
  %85 = getelementptr inbounds nuw %struct.avifEncoder, ptr %84, i32 0, i32 19
  %86 = load ptr, ptr %85, align 8
  %87 = getelementptr inbounds nuw %struct.avifEncoderData, ptr %86, i32 0, i32 18
  %88 = load ptr, ptr %87, align 8
  %89 = load ptr, ptr %17, align 8
  %90 = load i64, ptr %18, align 8
  %91 = load i32, ptr %21, align 4
  %92 = call ptr @avifEncoderDataCreateItem(ptr noundef %83, ptr noundef %88, ptr noundef %89, i64 noundef %90, i32 noundef %91)
  store ptr %92, ptr %22, align 8
  br label %93

93:                                               ; preds = %80
  %94 = load ptr, ptr %22, align 8
  %95 = icmp ne ptr %94, null
  br i1 %95, label %97, label %96

96:                                               ; preds = %93
  store i32 26, ptr %8, align 4
  br label %152

97:                                               ; preds = %93
  br label %98

98:                                               ; preds = %97
  br label %99

99:                                               ; preds = %98
  %100 = load ptr, ptr %9, align 8
  %101 = getelementptr inbounds nuw %struct.avifEncoder, ptr %100, i32 0, i32 0
  %102 = load i32, ptr %101, align 8
  %103 = load ptr, ptr %22, align 8
  %104 = getelementptr inbounds nuw %struct.avifEncoderItem, ptr %103, i32 0, i32 2
  %105 = call i32 @avifCodecCreate(i32 noundef %102, i32 noundef 2, ptr noundef %104)
  store i32 %105, ptr %23, align 4
  %106 = load i32, ptr %23, align 4
  %107 = icmp ne i32 %106, 0
  br i1 %107, label %108, label %110

108:                                              ; preds = %99
  %109 = load i32, ptr %23, align 4
  store i32 %109, ptr %8, align 4
  br label %152

110:                                              ; preds = %99
  br label %111

111:                                              ; preds = %110
  %112 = load ptr, ptr %9, align 8
  %113 = getelementptr inbounds nuw %struct.avifEncoder, ptr %112, i32 0, i32 20
  %114 = load ptr, ptr %113, align 8
  %115 = load ptr, ptr %22, align 8
  %116 = getelementptr inbounds nuw %struct.avifEncoderItem, ptr %115, i32 0, i32 2
  %117 = load ptr, ptr %116, align 8
  %118 = getelementptr inbounds nuw %struct.avifCodec, ptr %117, i32 0, i32 0
  store ptr %114, ptr %118, align 8
  %119 = load ptr, ptr %9, align 8
  %120 = getelementptr inbounds nuw %struct.avifEncoder, ptr %119, i32 0, i32 18
  %121 = load ptr, ptr %22, align 8
  %122 = getelementptr inbounds nuw %struct.avifEncoderItem, ptr %121, i32 0, i32 2
  %123 = load ptr, ptr %122, align 8
  %124 = getelementptr inbounds nuw %struct.avifCodec, ptr %123, i32 0, i32 2
  store ptr %120, ptr %124, align 8
  %125 = load i32, ptr %14, align 4
  %126 = load ptr, ptr %22, align 8
  %127 = getelementptr inbounds nuw %struct.avifEncoderItem, ptr %126, i32 0, i32 7
  store i32 %125, ptr %127, align 8
  %128 = load ptr, ptr %9, align 8
  %129 = getelementptr inbounds nuw %struct.avifEncoder, ptr %128, i32 0, i32 6
  %130 = load i32, ptr %129, align 4
  %131 = load ptr, ptr %22, align 8
  %132 = getelementptr inbounds nuw %struct.avifEncoderItem, ptr %131, i32 0, i32 20
  store i32 %130, ptr %132, align 8
  %133 = load i32, ptr %16, align 4
  %134 = icmp ugt i32 %133, 1
  br i1 %134, label %135, label %142

135:                                              ; preds = %111
  %136 = load ptr, ptr %15, align 8
  %137 = load i16, ptr %136, align 2
  %138 = load ptr, ptr %22, align 8
  %139 = getelementptr inbounds nuw %struct.avifEncoderItem, ptr %138, i32 0, i32 21
  store i16 %137, ptr %139, align 4
  %140 = load ptr, ptr %22, align 8
  %141 = getelementptr inbounds nuw %struct.avifEncoderItem, ptr %140, i32 0, i32 8
  store i32 1, ptr %141, align 4
  br label %147

142:                                              ; preds = %111
  %143 = load ptr, ptr %22, align 8
  %144 = getelementptr inbounds nuw %struct.avifEncoderItem, ptr %143, i32 0, i32 0
  %145 = load i16, ptr %144, align 8
  %146 = load ptr, ptr %15, align 8
  store i16 %145, ptr %146, align 2
  br label %147

147:                                              ; preds = %142, %135
  br label %148

148:                                              ; preds = %147
  %149 = load i32, ptr %21, align 4
  %150 = add i32 %149, 1
  store i32 %150, ptr %21, align 4
  br label %76, !llvm.loop !47

151:                                              ; preds = %76
  store i32 0, ptr %8, align 4
  br label %152

152:                                              ; preds = %151, %108, %96, %52
  %153 = load i32, ptr %8, align 4
  ret i32 %153
}