; Function Attrs: nounwind uwtable
define internal fastcc i32 @avifEncoderAddImageItems(ptr noundef %0, i32 noundef %1, i32 noundef %2, i32 noundef %3, i32 noundef %4, i32 noundef %5, ptr nocapture noundef %6) unnamed_addr #1 {
  %8 = alloca %struct.avifRWStream, align 8
  %9 = mul nuw nsw i32 %2, %1
  %10 = icmp eq i32 %5, 1
  %11 = select i1 %10, ptr @infeNameAlpha, ptr @infeNameColor
  %12 = icmp ugt i32 %9, 1
  %13 = getelementptr inbounds nuw i8, ptr %0, i64 360
  br i1 %12, label %14, label %42

14:                                               ; preds = %7
  %15 = load ptr, ptr %13, align 8
  %16 = tail call fastcc ptr @avifEncoderDataCreateItem(ptr noundef %15, ptr noundef nonnull @.str.59, ptr noundef nonnull %11, i64 noundef 6, i32 noundef 0)
  %17 = getelementptr inbounds nuw i8, ptr %16, i64 24
  call void @llvm.lifetime.start.p0(i64 24, ptr nonnull %8)
  %18 = or i32 %4, %3
  %.not.i = icmp ugt i32 %18, 65535
  call void @avifRWStreamStart(ptr noundef nonnull %8, ptr noundef nonnull %17) #13
  %19 = call i32 @avifRWStreamWriteU8(ptr noundef nonnull %8, i8 noundef zeroext 0) #13
  %.not37.i = icmp eq i32 %19, 0
  br i1 %.not37.i, label %20, label %avifWriteGridPayload.exit.thread

20:                                               ; preds = %14
  %21 = zext i1 %.not.i to i8
  %22 = call i32 @avifRWStreamWriteU8(ptr noundef nonnull %8, i8 noundef zeroext %21) #13
  %.not38.i = icmp eq i32 %22, 0
  br i1 %.not38.i, label %23, label %avifWriteGridPayload.exit.thread

23:                                               ; preds = %20
  %24 = trunc i32 %2 to i8
  %25 = add i8 %24, -1
  %26 = call i32 @avifRWStreamWriteU8(ptr noundef nonnull %8, i8 noundef zeroext %25) #13
  %.not39.i = icmp eq i32 %26, 0
  br i1 %.not39.i, label %27, label %avifWriteGridPayload.exit.thread

27:                                               ; preds = %23
  %28 = trunc i32 %1 to i8
  %29 = add i8 %28, -1
  %30 = call i32 @avifRWStreamWriteU8(ptr noundef nonnull %8, i8 noundef zeroext %29) #13
  %.not40.i = icmp eq i32 %30, 0
  br i1 %.not40.i, label %31, label %avifWriteGridPayload.exit.thread

31:                                               ; preds = %27
  br i1 %.not.i, label %32, label %36

32:                                               ; preds = %31
  %33 = call i32 @avifRWStreamWriteU32(ptr noundef nonnull %8, i32 noundef %3) #13
  %.not43.i = icmp eq i32 %33, 0
  br i1 %.not43.i, label %34, label %avifWriteGridPayload.exit.thread

34:                                               ; preds = %32
  %35 = call i32 @avifRWStreamWriteU32(ptr noundef nonnull %8, i32 noundef %4) #13
  %.not44.i = icmp eq i32 %35, 0
  br i1 %.not44.i, label %.lr.ph.split.us.preheader, label %avifWriteGridPayload.exit.thread

36:                                               ; preds = %31
  %37 = trunc nuw i32 %3 to i16
  %38 = call i32 @avifRWStreamWriteU16(ptr noundef nonnull %8, i16 noundef zeroext %37) #13
  %.not41.i = icmp eq i32 %38, 0
  br i1 %.not41.i, label %39, label %avifWriteGridPayload.exit.thread

39:                                               ; preds = %36
  %40 = trunc nuw i32 %4 to i16
  %41 = call i32 @avifRWStreamWriteU16(ptr noundef nonnull %8, i16 noundef zeroext %40) #13
  %.not42.i = icmp eq i32 %41, 0
  br i1 %.not42.i, label %.lr.ph.split.us.preheader, label %avifWriteGridPayload.exit.thread

avifWriteGridPayload.exit.thread:                 ; preds = %14, %20, %23, %27, %32, %34, %36, %39
  %.0.i.ph = phi i32 [ %41, %39 ], [ %38, %36 ], [ %35, %34 ], [ %33, %32 ], [ %30, %27 ], [ %26, %23 ], [ %22, %20 ], [ %19, %14 ]
  call void @llvm.lifetime.end.p0(i64 24, ptr nonnull %8)
  br label %.loopexit

42:                                               ; preds = %7
  %.not = icmp eq i32 %9, 0
  br i1 %.not, label %.loopexit, label %.lr.ph.split.preheader

.lr.ph.split.preheader:                           ; preds = %42
  %43 = getelementptr inbounds nuw i8, ptr %0, i64 368
  %44 = getelementptr inbounds nuw i8, ptr %0, i64 104
  %45 = getelementptr inbounds nuw i8, ptr %0, i64 28
  br label %.lr.ph.split

.lr.ph.split.us.preheader:                        ; preds = %34, %39
  call void @avifRWStreamFinishWrite(ptr noundef nonnull %8) #13
  call void @llvm.lifetime.end.p0(i64 24, ptr nonnull %8)
  %46 = getelementptr inbounds nuw i8, ptr %16, i64 56
  store i32 %5, ptr %46, align 8
  %47 = getelementptr inbounds nuw i8, ptr %16, i64 136
  store i32 %1, ptr %47, align 8
  %48 = getelementptr inbounds nuw i8, ptr %16, i64 140
  store i32 %2, ptr %48, align 4
  %49 = getelementptr inbounds nuw i8, ptr %16, i64 144
  store i32 %3, ptr %49, align 8
  %50 = getelementptr inbounds nuw i8, ptr %16, i64 148
  store i32 %4, ptr %50, align 4
  %51 = load i16, ptr %16, align 8
  store i16 %51, ptr %6, align 2
  %52 = getelementptr inbounds nuw i8, ptr %0, i64 360
  %53 = getelementptr inbounds nuw i8, ptr %0, i64 368
  %54 = getelementptr inbounds nuw i8, ptr %0, i64 104
  %55 = getelementptr inbounds nuw i8, ptr %0, i64 28
  br label %.lr.ph.split.us

.lr.ph.split.us:                                  ; preds = %.lr.ph.split.us.preheader, %64
  %.05462.us = phi i32 [ %75, %64 ], [ 0, %.lr.ph.split.us.preheader ]
  %56 = load ptr, ptr %52, align 8
  %57 = getelementptr inbounds nuw i8, ptr %56, i64 520
  %58 = load ptr, ptr %57, align 8
  %59 = call fastcc ptr @avifEncoderDataCreateItem(ptr noundef %56, ptr noundef %58, ptr noundef nonnull %11, i64 noundef 6, i32 noundef %.05462.us)
  %.not58.us = icmp eq ptr %59, null
  br i1 %.not58.us, label %.loopexit, label %60

60:                                               ; preds = %.lr.ph.split.us
  %61 = load i32, ptr %0, align 8
  %62 = getelementptr inbounds nuw i8, ptr %59, i64 8
  %63 = call i32 @avifCodecCreate(i32 noundef %61, i32 noundef 2, ptr noundef nonnull %62) #13
  %.not59.us = icmp eq i32 %63, 0
  br i1 %.not59.us, label %64, label %.loopexit

64:                                               ; preds = %60
  %65 = load ptr, ptr %53, align 8
  %66 = load ptr, ptr %62, align 8
  store ptr %65, ptr %66, align 8
  %67 = load ptr, ptr %62, align 8
  %68 = getelementptr inbounds nuw i8, ptr %67, i64 16
  store ptr %54, ptr %68, align 8
  %69 = getelementptr inbounds nuw i8, ptr %59, i64 56
  store i32 %5, ptr %69, align 8
  %70 = load i32, ptr %55, align 4
  %71 = getelementptr inbounds nuw i8, ptr %59, i64 152
  store i32 %70, ptr %71, align 8
  %72 = load i16, ptr %6, align 2
  %73 = getelementptr inbounds nuw i8, ptr %59, i64 156
  store i16 %72, ptr %73, align 4
  %74 = getelementptr inbounds nuw i8, ptr %59, i64 60
  store i32 1, ptr %74, align 4
  %75 = add nuw i32 %.05462.us, 1
  %exitcond71.not = icmp eq i32 %75, %9
  br i1 %exitcond71.not, label %.loopexit, label %.lr.ph.split.us, !llvm.loop !49

.lr.ph.split:                                     ; preds = %.lr.ph.split.preheader, %84
  %.05462 = phi i32 [ %93, %84 ], [ 0, %.lr.ph.split.preheader ]
  %76 = load ptr, ptr %13, align 8
  %77 = getelementptr inbounds nuw i8, ptr %76, i64 520
  %78 = load ptr, ptr %77, align 8
  %79 = tail call fastcc ptr @avifEncoderDataCreateItem(ptr noundef %76, ptr noundef %78, ptr noundef nonnull %11, i64 noundef 6, i32 noundef %.05462)
  %.not58 = icmp eq ptr %79, null
  br i1 %.not58, label %.loopexit, label %80

80:                                               ; preds = %.lr.ph.split
  %81 = load i32, ptr %0, align 8
  %82 = getelementptr inbounds nuw i8, ptr %79, i64 8
  %83 = tail call i32 @avifCodecCreate(i32 noundef %81, i32 noundef 2, ptr noundef nonnull %82) #13
  %.not59 = icmp eq i32 %83, 0
  br i1 %.not59, label %84, label %.loopexit

84:                                               ; preds = %80
  %85 = load ptr, ptr %43, align 8
  %86 = load ptr, ptr %82, align 8
  store ptr %85, ptr %86, align 8
  %87 = load ptr, ptr %82, align 8
  %88 = getelementptr inbounds nuw i8, ptr %87, i64 16
  store ptr %44, ptr %88, align 8
  %89 = getelementptr inbounds nuw i8, ptr %79, i64 56
  store i32 %5, ptr %89, align 8
  %90 = load i32, ptr %45, align 4
  %91 = getelementptr inbounds nuw i8, ptr %79, i64 152
  store i32 %90, ptr %91, align 8
  %92 = load i16, ptr %79, align 8
  store i16 %92, ptr %6, align 2
  %93 = add nuw i32 %.05462, 1
  %exitcond.not = icmp eq i32 %93, %9
  br i1 %exitcond.not, label %.loopexit, label %.lr.ph.split, !llvm.loop !49

.loopexit:                                        ; preds = %.lr.ph.split, %80, %84, %.lr.ph.split.us, %60, %64, %42, %avifWriteGridPayload.exit.thread
  %.0 = phi i32 [ %.0.i.ph, %avifWriteGridPayload.exit.thread ], [ 0, %42 ], [ 26, %.lr.ph.split.us ], [ %63, %60 ], [ 0, %64 ], [ 26, %.lr.ph.split ], [ %83, %80 ], [ 0, %84 ]
  ret i32 %.0
}